; Function Attrs: mustprogress nounwind uwtable
define dso_local void @_ZN3ozz9animation8SkeletonD2Ev(ptr nocapture noundef nonnull align 8 dereferenceable(48) %0) unnamed_addr #5 align 2 personality ptr @__gxx_personality_v0 {
  %2 = invoke noundef ptr @_ZN3ozz6memory17default_allocatorEv()
          to label %.noexc unwind label %8

.noexc:                                           ; preds = %1
  %3 = load ptr, ptr %0, align 8
  %4 = load ptr, ptr %2, align 8
  %5 = getelementptr inbounds i8, ptr %4, i64 24
  %6 = load ptr, ptr %5, align 8
  invoke void %6(ptr noundef nonnull align 8 dereferenceable(8) %2, ptr noundef %3)
          to label %7 unwind label %8

7:                                                ; preds = %.noexc
  tail call void @llvm.memset.p0.i64(ptr noundef nonnull align 8 dereferenceable(48) %0, i8 0, i64 48, i1 false)
  ret void

8:                                                ; preds = %.noexc, %1
  %9 = landingpad { ptr, i32 }
          catch ptr null
  %10 = extractvalue { ptr, i32 } %9, 0
  tail call void @__clang_call_terminate(ptr %10) #13
  unreachable
}